; Function Attrs: nounwind uwtable
define noalias noundef nonnull ptr @l_Std_Sat_AIG_Decl_gateToCNF___rarg___boxed(ptr noundef %0, ptr noundef %1, ptr noundef %2, ptr noundef %3, ptr noundef %4) #0 {
  %6 = ptrtoint ptr %3 to i64
  %7 = and i64 %6, 1
  %.not = icmp eq i64 %7, 0
  br i1 %.not, label %8, label %lean_dec.exit

8:                                                ; preds = %5
  %9 = load i32, ptr %3, align 4, !tbaa !4
  %10 = icmp sgt i32 %9, 1
  br i1 %10, label %11, label %13, !prof !13

11:                                               ; preds = %8
  %12 = add nsw i32 %9, -1
  store i32 %12, ptr %3, align 4, !tbaa !4
  br label %lean_dec.exit

13:                                               ; preds = %8
  %.not.i10 = icmp eq i32 %9, 0
  br i1 %.not.i10, label %lean_dec.exit, label %14

14:                                               ; preds = %13
  tail call void @lean_dec_ref_cold(ptr noundef nonnull %3) #3
  br label %lean_dec.exit

lean_dec.exit:                                    ; preds = %14, %13, %11, %5
  %15 = ptrtoint ptr %4 to i64
  %16 = and i64 %15, 1
  %.not12 = icmp eq i64 %16, 0
  br i1 %.not12, label %17, label %lean_dec.exit9

17:                                               ; preds = %lean_dec.exit
  %18 = load i32, ptr %4, align 4, !tbaa !4
  %19 = icmp sgt i32 %18, 1
  br i1 %19, label %20, label %22, !prof !13

20:                                               ; preds = %17
  %21 = add nsw i32 %18, -1
  store i32 %21, ptr %4, align 4, !tbaa !4
  br label %lean_dec.exit9

22:                                               ; preds = %17
  %.not.i = icmp eq i32 %18, 0
  br i1 %.not.i, label %lean_dec.exit9, label %23

23:                                               ; preds = %22
  tail call void @lean_dec_ref_cold(ptr noundef nonnull %4) #3
  br label %lean_dec.exit9

lean_dec.exit9:                                   ; preds = %23, %22, %20, %lean_dec.exit
  %24 = lshr i64 %15, 1
  %25 = trunc i64 %24 to i8
  %26 = lshr i64 %6, 1
  %27 = trunc i64 %26 to i8
  %28 = tail call ptr @l_Std_Sat_AIG_Decl_gateToCNF___rarg(ptr noundef %0, ptr noundef %1, ptr noundef %2, i8 noundef zeroext %27, i8 noundef zeroext %25)
  ret ptr %28
}